target datalayout = "e-m:e-p270:32:32-p271:32:32-p272:64:64-i64:64-i128:128-f80:128-n8:16:32:64-S128"
target triple = "x86_64-pc-linux-gnu"

%"class.icu_77::UnicodeString" = type { %"class.icu_77::Replaceable", %"union.icu_77::UnicodeString::StackBufferOrFields" }
%"class.icu_77::Replaceable" = type { %"class.icu_77::UObject" }
%"class.icu_77::UObject" = type { ptr }
%"union.icu_77::UnicodeString::StackBufferOrFields" = type { %struct.anon.0, [32 x i8] }
%struct.anon.0 = type { i16, i32, i32, ptr }
%"struct.icu_77::CollationData" = type <{ ptr, ptr, ptr, ptr, ptr, ptr, ptr, i32, i32, i32, i32, ptr, ptr, ptr, i32, i32, ptr, ptr, i32, [4 x i8], ptr, i32, [4 x i8] }>
%"class.icu_77::CollationDataBuilder" = type { %"class.icu_77::UObject", ptr, ptr, ptr, ptr, %"class.icu_77::UVector32", %"class.icu_77::UVector64", %"class.icu_77::UVector", %"class.icu_77::UnicodeSet", %"class.icu_77::UnicodeString", i32, [4 x i8], %"class.icu_77::UnicodeSet", i8, i8, i8, ptr, ptr }
%"class.icu_77::UVector32" = type { %"class.icu_77::UObject", i32, i32, i32, ptr }
%"class.icu_77::UVector64" = type { %"class.icu_77::UObject", i32, i32, i32, ptr }
%"class.icu_77::UVector" = type { %"class.icu_77::UObject", i32, i32, ptr, ptr, ptr }
%"class.icu_77::UnicodeSet" = type <{ %"class.icu_77::UnicodeFilter", ptr, i32, i32, i8, [7 x i8], ptr, ptr, i32, [4 x i8], ptr, i32, [4 x i8], ptr, ptr, [25 x i32], [4 x i8] }>
%"class.icu_77::UnicodeFilter" = type { %"class.icu_77::UnicodeFunctor", %"class.icu_77::UnicodeMatcher" }
%"class.icu_77::UnicodeFunctor" = type { %"class.icu_77::UObject" }
%"class.icu_77::UnicodeMatcher" = type { ptr }

; Function Attrs: mustprogress nounwind uwtable
define linkonce_odr noundef i32 @_ZN6icu_779Collation19makeLongPrimaryCE32Ej(i32 noundef %0) #1 comdat align 2 {
  %2 = alloca i32, align 4
  store i32 %0, ptr %2, align 4, !tbaa !57
  %3 = load i32, ptr %2, align 4, !tbaa !57
  %4 = or i32 %3, 193
  ret i32 %4
}

; Function Attrs: inlinehint mustprogress nounwind uwtable
define linkonce_odr noundef i64 @_ZNK6icu_779UVector6410elementAtiEi(ptr noundef nonnull align 8 dereferenceable(32) %0, i32 noundef %1) #3 comdat align 2 {
  %3 = alloca ptr, align 8
  %4 = alloca i32, align 4
  store ptr %0, ptr %3, align 8, !tbaa !107
  store i32 %1, ptr %4, align 4, !tbaa !57
  %5 = load ptr, ptr %3, align 8
  %6 = load i32, ptr %4, align 4, !tbaa !57
  %7 = icmp sle i32 0, %6
  br i1 %7, label %8, label %20

8:                                                ; preds = %2
  %9 = load i32, ptr %4, align 4, !tbaa !57
  %10 = getelementptr inbounds nuw %"class.icu_77::UVector64", ptr %5, i32 0, i32 1
  %11 = load i32, ptr %10, align 8, !tbaa !143
  %12 = icmp slt i32 %9, %11
  br i1 %12, label %13, label %20

13:                                               ; preds = %8
  %14 = getelementptr inbounds nuw %"class.icu_77::UVector64", ptr %5, i32 0, i32 4
  %15 = load ptr, ptr %14, align 8, !tbaa !109
  %16 = load i32, ptr %4, align 4, !tbaa !57
  %17 = sext i32 %16 to i64
  %18 = getelementptr inbounds i64, ptr %15, i64 %17
  %19 = load i64, ptr %18, align 8, !tbaa !100
  br label %21

20:                                               ; preds = %8, %2
  br label %21

21:                                               ; preds = %20, %13
  %22 = phi i64 [ %19, %13 ], [ 0, %20 ]
  ret i64 %22
}

; Function Attrs: inlinehint mustprogress nounwind uwtable
define linkonce_odr noundef i32 @_ZN6icu_779Collation13indexFromCE32Ej(i32 noundef %0) #3 comdat align 2 {
  %2 = alloca i32, align 4
  store i32 %0, ptr %2, align 4, !tbaa !57
  %3 = load i32, ptr %2, align 4, !tbaa !57
  %4 = lshr i32 %3, 13
  ret i32 %4
}

; Function Attrs: mustprogress uwtable
define noundef i32 @_ZNK6icu_7720CollationDataBuilder21getCE32FromOffsetCE32Eaij(ptr noundef nonnull align 8 dereferenceable(640) %0, i8 noundef signext %1, i32 noundef %2, i32 noundef %3) #4 align 2 {
  %5 = alloca ptr, align 8
  %6 = alloca i8, align 1
  %7 = alloca i32, align 4
  %8 = alloca i32, align 4
  %9 = alloca i32, align 4
  %10 = alloca i64, align 8
  %11 = alloca i32, align 4
  store ptr %0, ptr %5, align 8, !tbaa !13
  store i8 %1, ptr %6, align 1, !tbaa !64
  store i32 %2, ptr %7, align 4, !tbaa !57
  store i32 %3, ptr %8, align 4, !tbaa !57
  %12 = load ptr, ptr %5, align 8
  call void @llvm.lifetime.start.p0(i64 4, ptr %9) #11
  %13 = load i32, ptr %8, align 4, !tbaa !57
  %14 = call noundef i32 @_ZN6icu_779Collation13indexFromCE32Ej(i32 noundef %13)
  store i32 %14, ptr %9, align 4, !tbaa !57
  call void @llvm.lifetime.start.p0(i64 8, ptr %10) #11
  %15 = load i8, ptr %6, align 1, !tbaa !64
  %16 = icmp ne i8 %15, 0
  br i1 %16, label %17, label %26

17:                                               ; preds = %4
  %18 = getelementptr inbounds nuw %"class.icu_77::CollationDataBuilder", ptr %12, i32 0, i32 2
  %19 = load ptr, ptr %18, align 8, !tbaa !55
  %20 = getelementptr inbounds nuw %"struct.icu_77::CollationData", ptr %19, i32 0, i32 2
  %21 = load ptr, ptr %20, align 8, !tbaa !74
  %22 = load i32, ptr %9, align 4, !tbaa !57
  %23 = sext i32 %22 to i64
  %24 = getelementptr inbounds i64, ptr %21, i64 %23
  %25 = load i64, ptr %24, align 8, !tbaa !100
  br label %30

26:                                               ; preds = %4
  %27 = getelementptr inbounds nuw %"class.icu_77::CollationDataBuilder", ptr %12, i32 0, i32 6
  %28 = load i32, ptr %9, align 4, !tbaa !57
  %29 = call noundef i64 @_ZNK6icu_779UVector6410elementAtiEi(ptr noundef nonnull align 8 dereferenceable(32) %27, i32 noundef %28)
  br label %30

30:                                               ; preds = %26, %17
  %31 = phi i64 [ %25, %17 ], [ %29, %26 ]
  store i64 %31, ptr %10, align 8, !tbaa !100
  call void @llvm.lifetime.start.p0(i64 4, ptr %11) #11
  %32 = load i32, ptr %7, align 4, !tbaa !57
  %33 = load i64, ptr %10, align 8, !tbaa !100
  %34 = call noundef i32 @_ZN6icu_779Collation32getThreeBytePrimaryForOffsetDataEil(i32 noundef %32, i64 noundef %33)
  store i32 %34, ptr %11, align 4, !tbaa !57
  %35 = load i32, ptr %11, align 4, !tbaa !57
  %36 = call noundef i32 @_ZN6icu_779Collation19makeLongPrimaryCE32Ej(i32 noundef %35)
  call void @llvm.lifetime.end.p0(i64 4, ptr %11) #11
  call void @llvm.lifetime.end.p0(i64 8, ptr %10) #11
  call void @llvm.lifetime.end.p0(i64 4, ptr %9) #11
  ret i32 %36
}