; Function Attrs: mustprogress uwtable
define noundef range(i32 193, 0) i32 @_ZNK6icu_7720CollationDataBuilder21getCE32FromOffsetCE32Eaij(ptr noundef nonnull readonly align 8 captures(none) dereferenceable(640) %0, i8 noundef signext %1, i32 noundef %2, i32 noundef %3) local_unnamed_addr #6 align 2 {
  %5 = lshr i32 %3, 13
  %.not = icmp eq i8 %1, 0
  br i1 %.not, label %10, label %6

6:                                                ; preds = %4
  %7 = getelementptr inbounds nuw i8, ptr %0, i64 16
  %8 = load ptr, ptr %7, align 8, !tbaa !63
  %9 = getelementptr inbounds nuw i8, ptr %8, i64 16
  br label %_ZNK6icu_779UVector6410elementAtiEi.exit.sink.split

10:                                               ; preds = %4
  %11 = getelementptr inbounds nuw i8, ptr %0, i64 80
  %12 = load i32, ptr %11, align 8
  %13 = icmp slt i32 %5, %12
  br i1 %13, label %14, label %_ZNK6icu_779UVector6410elementAtiEi.exit

14:                                               ; preds = %10
  %15 = getelementptr inbounds nuw i8, ptr %0, i64 96
  br label %_ZNK6icu_779UVector6410elementAtiEi.exit.sink.split

_ZNK6icu_779UVector6410elementAtiEi.exit.sink.split: ; preds = %6, %14
  %.sink7.in = phi ptr [ %15, %14 ], [ %9, %6 ]
  %.sink7 = load ptr, ptr %.sink7.in, align 8, !tbaa !128
  %16 = zext nneg i32 %5 to i64
  %17 = getelementptr inbounds nuw i64, ptr %.sink7, i64 %16
  %18 = load i64, ptr %17, align 8, !tbaa !89
  br label %_ZNK6icu_779UVector6410elementAtiEi.exit

_ZNK6icu_779UVector6410elementAtiEi.exit:         ; preds = %_ZNK6icu_779UVector6410elementAtiEi.exit.sink.split, %10
  %19 = phi i64 [ 0, %10 ], [ %18, %_ZNK6icu_779UVector6410elementAtiEi.exit.sink.split ]
  %20 = tail call noundef i32 @_ZN6icu_779Collation32getThreeBytePrimaryForOffsetDataEil(i32 noundef %2, i64 noundef %19)
  %21 = or i32 %20, 193
  ret i32 %21
}